target datalayout = "e-m:e-p270:32:32-p271:32:32-p272:64:64-i64:64-i128:128-f80:128-n8:16:32:64-S128"
target triple = "x86_64-pc-linux-gnu"

%struct.btQuantizedBvhNode = type { [3 x i16], [3 x i16], i32 }

; Function Attrs: inlinehint mustprogress nounwind uwtable
define linkonce_odr dso_local noundef i32 @_Z8btSelectjii(i32 noundef %0, i32 noundef %1, i32 noundef %2) #3 comdat {
  %4 = alloca i32, align 4
  %5 = alloca i32, align 4
  %6 = alloca i32, align 4
  %7 = alloca i32, align 4
  %8 = alloca i32, align 4
  store i32 %0, ptr %4, align 4, !tbaa !9
  store i32 %1, ptr %5, align 4, !tbaa !9
  store i32 %2, ptr %6, align 4, !tbaa !9
  call void @llvm.lifetime.start.p0(i64 4, ptr %7) #14
  %9 = load i32, ptr %4, align 4, !tbaa !9
  %10 = load i32, ptr %4, align 4, !tbaa !9
  %11 = sub nsw i32 0, %10
  %12 = or i32 %9, %11
  %13 = ashr i32 %12, 31
  store i32 %13, ptr %7, align 4, !tbaa !9
  call void @llvm.lifetime.start.p0(i64 4, ptr %8) #14
  %14 = load i32, ptr %7, align 4, !tbaa !9
  %15 = xor i32 %14, -1
  store i32 %15, ptr %8, align 4, !tbaa !9
  %16 = load i32, ptr %5, align 4, !tbaa !9
  %17 = load i32, ptr %7, align 4, !tbaa !9
  %18 = and i32 %16, %17
  %19 = load i32, ptr %6, align 4, !tbaa !9
  %20 = load i32, ptr %8, align 4, !tbaa !9
  %21 = and i32 %19, %20
  %22 = or i32 %18, %21
  call void @llvm.lifetime.end.p0(i64 4, ptr %8) #14
  call void @llvm.lifetime.end.p0(i64 4, ptr %7) #14
  ret i32 %22
}

; Function Attrs: mustprogress nounwind uwtable
define linkonce_odr dso_local noundef i32 @_ZNK18btQuantizedBvhNode14getEscapeIndexEv(ptr noundef nonnull align 4 dereferenceable(16) %0) #1 comdat align 2 {
  %2 = alloca ptr, align 8
  store ptr %0, ptr %2, align 8, !tbaa !53
  %3 = load ptr, ptr %2, align 8
  %4 = getelementptr inbounds nuw %struct.btQuantizedBvhNode, ptr %3, i32 0, i32 2
  %5 = load i32, ptr %4, align 4, !tbaa !65
  %6 = sub nsw i32 0, %5
  ret i32 %6
}

; Function Attrs: mustprogress nounwind uwtable
define linkonce_odr dso_local noundef i32 @_ZNK18btQuantizedBvhNode16getTriangleIndexEv(ptr noundef nonnull align 4 dereferenceable(16) %0) #1 comdat align 2 {
  %2 = alloca ptr, align 8
  %3 = alloca i32, align 4
  %4 = alloca i32, align 4
  store ptr %0, ptr %2, align 8, !tbaa !53
  %5 = load ptr, ptr %2, align 8
  call void @llvm.lifetime.start.p0(i64 4, ptr %3) #14
  store i32 0, ptr %3, align 4, !tbaa !9
  call void @llvm.lifetime.start.p0(i64 4, ptr %4) #14
  %6 = load i32, ptr %3, align 4, !tbaa !9
  %7 = and i32 %6, 0
  %8 = xor i32 %7, -1
  %9 = shl i32 %8, 27
  store i32 %9, ptr %4, align 4, !tbaa !9
  %10 = getelementptr inbounds nuw %struct.btQuantizedBvhNode, ptr %5, i32 0, i32 2
  %11 = load i32, ptr %10, align 4, !tbaa !65
  %12 = load i32, ptr %4, align 4, !tbaa !9
  %13 = xor i32 %12, -1
  %14 = and i32 %11, %13
  call void @llvm.lifetime.end.p0(i64 4, ptr %4) #14
  call void @llvm.lifetime.end.p0(i64 4, ptr %3) #14
  ret i32 %14
}

; Function Attrs: mustprogress nounwind uwtable
define linkonce_odr dso_local noundef i32 @_ZNK18btQuantizedBvhNode9getPartIdEv(ptr noundef nonnull align 4 dereferenceable(16) %0) #1 comdat align 2 {
  %2 = alloca ptr, align 8
  store ptr %0, ptr %2, align 8, !tbaa !53
  %3 = load ptr, ptr %2, align 8
  %4 = getelementptr inbounds nuw %struct.btQuantizedBvhNode, ptr %3, i32 0, i32 2
  %5 = load i32, ptr %4, align 4, !tbaa !65
  %6 = ashr i32 %5, 27
  ret i32 %6
}

; Function Attrs: mustprogress nounwind uwtable
define linkonce_odr dso_local noundef zeroext i1 @_ZNK18btQuantizedBvhNode10isLeafNodeEv(ptr noundef nonnull align 4 dereferenceable(16) %0) #1 comdat align 2 {
  %2 = alloca ptr, align 8
  store ptr %0, ptr %2, align 8, !tbaa !53
  %3 = load ptr, ptr %2, align 8
  %4 = getelementptr inbounds nuw %struct.btQuantizedBvhNode, ptr %3, i32 0, i32 2
  %5 = load i32, ptr %4, align 4, !tbaa !65
  %6 = icmp sge i32 %5, 0
  ret i1 %6
}

; Function Attrs: inlinehint mustprogress uwtable
define linkonce_odr dso_local noundef i32 @_Z37testQuantizedAabbAgainstQuantizedAabbPKtS0_S0_S0_(ptr noundef %0, ptr noundef %1, ptr noundef %2, ptr noundef %3) #5 comdat {
  %5 = alloca ptr, align 8
  %6 = alloca ptr, align 8
  %7 = alloca ptr, align 8
  %8 = alloca ptr, align 8
  store ptr %0, ptr %5, align 8, !tbaa !68
  store ptr %1, ptr %6, align 8, !tbaa !68
  store ptr %2, ptr %7, align 8, !tbaa !68
  store ptr %3, ptr %8, align 8, !tbaa !68
  %9 = load ptr, ptr %5, align 8, !tbaa !68
  %10 = getelementptr inbounds i16, ptr %9, i64 0
  %11 = load i16, ptr %10, align 2, !tbaa !63
  %12 = zext i16 %11 to i32
  %13 = load ptr, ptr %8, align 8, !tbaa !68
  %14 = getelementptr inbounds i16, ptr %13, i64 0
  %15 = load i16, ptr %14, align 2, !tbaa !63
  %16 = zext i16 %15 to i32
  %17 = icmp sle i32 %12, %16
  %18 = zext i1 %17 to i32
  %19 = load ptr, ptr %6, align 8, !tbaa !68
  %20 = getelementptr inbounds i16, ptr %19, i64 0
  %21 = load i16, ptr %20, align 2, !tbaa !63
  %22 = zext i16 %21 to i32
  %23 = load ptr, ptr %7, align 8, !tbaa !68
  %24 = getelementptr inbounds i16, ptr %23, i64 0
  %25 = load i16, ptr %24, align 2, !tbaa !63
  %26 = zext i16 %25 to i32
  %27 = icmp sge i32 %22, %26
  %28 = zext i1 %27 to i32
  %29 = and i32 %18, %28
  %30 = load ptr, ptr %5, align 8, !tbaa !68
  %31 = getelementptr inbounds i16, ptr %30, i64 2
  %32 = load i16, ptr %31, align 2, !tbaa !63
  %33 = zext i16 %32 to i32
  %34 = load ptr, ptr %8, align 8, !tbaa !68
  %35 = getelementptr inbounds i16, ptr %34, i64 2
  %36 = load i16, ptr %35, align 2, !tbaa !63
  %37 = zext i16 %36 to i32
  %38 = icmp sle i32 %33, %37
  %39 = zext i1 %38 to i32
  %40 = and i32 %29, %39
  %41 = load ptr, ptr %6, align 8, !tbaa !68
  %42 = getelementptr inbounds i16, ptr %41, i64 2
  %43 = load i16, ptr %42, align 2, !tbaa !63
  %44 = zext i16 %43 to i32
  %45 = load ptr, ptr %7, align 8, !tbaa !68
  %46 = getelementptr inbounds i16, ptr %45, i64 2
  %47 = load i16, ptr %46, align 2, !tbaa !63
  %48 = zext i16 %47 to i32
  %49 = icmp sge i32 %44, %48
  %50 = zext i1 %49 to i32
  %51 = and i32 %40, %50
  %52 = load ptr, ptr %5, align 8, !tbaa !68
  %53 = getelementptr inbounds i16, ptr %52, i64 1
  %54 = load i16, ptr %53, align 2, !tbaa !63
  %55 = zext i16 %54 to i32
  %56 = load ptr, ptr %8, align 8, !tbaa !68
  %57 = getelementptr inbounds i16, ptr %56, i64 1
  %58 = load i16, ptr %57, align 2, !tbaa !63
  %59 = zext i16 %58 to i32
  %60 = icmp sle i32 %55, %59
  %61 = zext i1 %60 to i32
  %62 = and i32 %51, %61
  %63 = load ptr, ptr %6, align 8, !tbaa !68
  %64 = getelementptr inbounds i16, ptr %63, i64 1
  %65 = load i16, ptr %64, align 2, !tbaa !63
  %66 = zext i16 %65 to i32
  %67 = load ptr, ptr %7, align 8, !tbaa !68
  %68 = getelementptr inbounds i16, ptr %67, i64 1
  %69 = load i16, ptr %68, align 2, !tbaa !63
  %70 = zext i16 %69 to i32
  %71 = icmp sge i32 %66, %70
  %72 = zext i1 %71 to i32
  %73 = and i32 %62, %72
  %74 = call noundef i32 @_Z8btSelectjii(i32 noundef %73, i32 noundef 1, i32 noundef 0)
  ret i32 %74
}

; Function Attrs: mustprogress uwtable
define dso_local void @_ZNK14btQuantizedBvh42walkRecursiveQuantizedTreeAgainstQueryAabbEPK18btQuantizedBvhNodeP21btNodeOverlapCallbackPtS5_(ptr noundef nonnull align 8 dereferenceable(244) %0, ptr noundef %1, ptr noundef %2, ptr noundef %3, ptr noundef %4) #2 align 2 {
  %6 = alloca ptr, align 8
  %7 = alloca ptr, align 8
  %8 = alloca ptr, align 8
  %9 = alloca ptr, align 8
  %10 = alloca ptr, align 8
  %11 = alloca i8, align 1
  %12 = alloca i32, align 4
  %13 = alloca ptr, align 8
  %14 = alloca ptr, align 8
  store ptr %0, ptr %6, align 8, !tbaa !12
  store ptr %1, ptr %7, align 8, !tbaa !53
  store ptr %2, ptr %8, align 8, !tbaa !80
  store ptr %3, ptr %9, align 8, !tbaa !68
  store ptr %4, ptr %10, align 8, !tbaa !68
  %15 = load ptr, ptr %6, align 8
  call void @llvm.lifetime.start.p0(i64 1, ptr %11) #14
  call void @llvm.lifetime.start.p0(i64 4, ptr %12) #14
  %16 = load ptr, ptr %9, align 8, !tbaa !68
  %17 = load ptr, ptr %10, align 8, !tbaa !68
  %18 = load ptr, ptr %7, align 8, !tbaa !53
  %19 = getelementptr inbounds nuw %struct.btQuantizedBvhNode, ptr %18, i32 0, i32 0
  %20 = getelementptr inbounds [3 x i16], ptr %19, i64 0, i64 0
  %21 = load ptr, ptr %7, align 8, !tbaa !53
  %22 = getelementptr inbounds nuw %struct.btQuantizedBvhNode, ptr %21, i32 0, i32 1
  %23 = getelementptr inbounds [3 x i16], ptr %22, i64 0, i64 0
  %24 = call noundef i32 @_Z37testQuantizedAabbAgainstQuantizedAabbPKtS0_S0_S0_(ptr noundef %16, ptr noundef %17, ptr noundef %20, ptr noundef %23)
  store i32 %24, ptr %12, align 4, !tbaa !9
  %25 = load ptr, ptr %7, align 8, !tbaa !53
  %26 = call noundef zeroext i1 @_ZNK18btQuantizedBvhNode10isLeafNodeEv(ptr noundef nonnull align 4 dereferenceable(16) %25)
  %27 = zext i1 %26 to i8
  store i8 %27, ptr %11, align 1, !tbaa !76
  %28 = load i32, ptr %12, align 4, !tbaa !9
  %29 = icmp ne i32 %28, 0
  br i1 %29, label %30, label %67

30:                                               ; preds = %5
  %31 = load i8, ptr %11, align 1, !tbaa !76, !range !45, !noundef !46
  %32 = trunc i8 %31 to i1
  br i1 %32, label %33, label %42

33:                                               ; preds = %30
  %34 = load ptr, ptr %8, align 8, !tbaa !80
  %35 = load ptr, ptr %7, align 8, !tbaa !53
  %36 = call noundef i32 @_ZNK18btQuantizedBvhNode9getPartIdEv(ptr noundef nonnull align 4 dereferenceable(16) %35)
  %37 = load ptr, ptr %7, align 8, !tbaa !53
  %38 = call noundef i32 @_ZNK18btQuantizedBvhNode16getTriangleIndexEv(ptr noundef nonnull align 4 dereferenceable(16) %37)
  %39 = load ptr, ptr %34, align 8, !tbaa !14
  %40 = getelementptr inbounds ptr, ptr %39, i64 2
  %41 = load ptr, ptr %40, align 8
  call void %41(ptr noundef nonnull align 8 dereferenceable(8) %34, i32 noundef %36, i32 noundef %38)
  br label %66

42:                                               ; preds = %30
  call void @llvm.lifetime.start.p0(i64 8, ptr %13) #14
  %43 = load ptr, ptr %7, align 8, !tbaa !53
  %44 = getelementptr inbounds %struct.btQuantizedBvhNode, ptr %43, i64 1
  store ptr %44, ptr %13, align 8, !tbaa !53
  %45 = load ptr, ptr %13, align 8, !tbaa !53
  %46 = load ptr, ptr %8, align 8, !tbaa !80
  %47 = load ptr, ptr %9, align 8, !tbaa !68
  %48 = load ptr, ptr %10, align 8, !tbaa !68
  call void @_ZNK14btQuantizedBvh42walkRecursiveQuantizedTreeAgainstQueryAabbEPK18btQuantizedBvhNodeP21btNodeOverlapCallbackPtS5_(ptr noundef nonnull align 8 dereferenceable(244) %15, ptr noundef %45, ptr noundef %46, ptr noundef %47, ptr noundef %48)
  call void @llvm.lifetime.start.p0(i64 8, ptr %14) #14
  %49 = load ptr, ptr %13, align 8, !tbaa !53
  %50 = call noundef zeroext i1 @_ZNK18btQuantizedBvhNode10isLeafNodeEv(ptr noundef nonnull align 4 dereferenceable(16) %49)
  br i1 %50, label %51, label %54

51:                                               ; preds = %42
  %52 = load ptr, ptr %13, align 8, !tbaa !53
  %53 = getelementptr inbounds %struct.btQuantizedBvhNode, ptr %52, i64 1
  br label %60

54:                                               ; preds = %42
  %55 = load ptr, ptr %13, align 8, !tbaa !53
  %56 = load ptr, ptr %13, align 8, !tbaa !53
  %57 = call noundef i32 @_ZNK18btQuantizedBvhNode14getEscapeIndexEv(ptr noundef nonnull align 4 dereferenceable(16) %56)
  %58 = sext i32 %57 to i64
  %59 = getelementptr inbounds %struct.btQuantizedBvhNode, ptr %55, i64 %58
  br label %60

60:                                               ; preds = %54, %51
  %61 = phi ptr [ %53, %51 ], [ %59, %54 ]
  store ptr %61, ptr %14, align 8, !tbaa !53
  %62 = load ptr, ptr %14, align 8, !tbaa !53
  %63 = load ptr, ptr %8, align 8, !tbaa !80
  %64 = load ptr, ptr %9, align 8, !tbaa !68
  %65 = load ptr, ptr %10, align 8, !tbaa !68
  call void @_ZNK14btQuantizedBvh42walkRecursiveQuantizedTreeAgainstQueryAabbEPK18btQuantizedBvhNodeP21btNodeOverlapCallbackPtS5_(ptr noundef nonnull align 8 dereferenceable(244) %15, ptr noundef %62, ptr noundef %63, ptr noundef %64, ptr noundef %65)
  call void @llvm.lifetime.end.p0(i64 8, ptr %14) #14
  call void @llvm.lifetime.end.p0(i64 8, ptr %13) #14
  br label %66

66:                                               ; preds = %60, %33
  br label %67

67:                                               ; preds = %66, %5
  call void @llvm.lifetime.end.p0(i64 4, ptr %12) #14
  call void @llvm.lifetime.end.p0(i64 1, ptr %11) #14
  ret void
}