; Function Attrs: mustprogress uwtable
define dso_local void @_ZNK14btQuantizedBvh42walkRecursiveQuantizedTreeAgainstQueryAabbEPK18btQuantizedBvhNodeP21btNodeOverlapCallbackPtS5_(ptr noundef nonnull readnone align 8 captures(none) dereferenceable(244) %0, ptr noundef readonly captures(none) %1, ptr noundef %2, ptr noundef readonly captures(none) %3, ptr noundef readonly captures(none) %4) local_unnamed_addr #2 align 2 {
  %6 = getelementptr inbounds nuw i8, ptr %3, i64 4
  %7 = getelementptr inbounds nuw i8, ptr %4, i64 4
  %8 = getelementptr inbounds nuw i8, ptr %3, i64 2
  %9 = getelementptr inbounds nuw i8, ptr %4, i64 2
  br label %tailrecurse

tailrecurse:                                      ; preds = %43, %5
  %.tr32 = phi ptr [ %1, %5 ], [ %52, %43 ]
  %10 = getelementptr inbounds nuw i8, ptr %.tr32, i64 6
  %11 = load i16, ptr %3, align 2, !tbaa !52
  %12 = load i16, ptr %10, align 2, !tbaa !52
  %13 = icmp ugt i16 %11, %12
  %14 = load i16, ptr %4, align 2, !tbaa !52
  %15 = load i16, ptr %.tr32, align 2, !tbaa !52
  %16 = icmp ult i16 %14, %15
  %.not23.not32.i.not31 = or i1 %13, %16
  %17 = load i16, ptr %6, align 2, !tbaa !52
  %18 = getelementptr inbounds nuw i8, ptr %.tr32, i64 10
  %19 = load i16, ptr %18, align 2, !tbaa !52
  %20 = icmp ugt i16 %17, %19
  %.not21.not29.i.not28 = or i1 %.not23.not32.i.not31, %20
  %21 = load i16, ptr %7, align 2, !tbaa !52
  %22 = getelementptr inbounds nuw i8, ptr %.tr32, i64 4
  %23 = load i16, ptr %22, align 2, !tbaa !52
  %24 = icmp ult i16 %21, %23
  %.not18.not27.i.not26 = or i1 %.not21.not29.i.not28, %24
  %25 = load i16, ptr %8, align 2, !tbaa !52
  %26 = getelementptr inbounds nuw i8, ptr %.tr32, i64 8
  %27 = load i16, ptr %26, align 2, !tbaa !52
  %28 = icmp ugt i16 %25, %27
  %.not16.not25.i.not24 = or i1 %.not18.not27.i.not26, %28
  %29 = load i16, ptr %9, align 2, !tbaa !52
  %30 = getelementptr inbounds nuw i8, ptr %.tr32, i64 2
  %31 = load i16, ptr %30, align 2, !tbaa !52
  %32 = icmp ult i16 %29, %31
  %.not13.not.i.not = or i1 %.not16.not25.i.not24, %32
  br i1 %.not13.not.i.not, label %.loopexit, label %33

33:                                               ; preds = %tailrecurse
  %34 = getelementptr inbounds nuw i8, ptr %.tr32, i64 12
  %35 = load i32, ptr %34, align 4, !tbaa !56
  %36 = icmp sgt i32 %35, -1
  br i1 %36, label %37, label %43

37:                                               ; preds = %33
  %38 = lshr i32 %35, 27
  %39 = and i32 %35, 134217727
  %40 = load ptr, ptr %2, align 8, !tbaa !4
  %41 = getelementptr inbounds nuw i8, ptr %40, i64 16
  %42 = load ptr, ptr %41, align 8
  tail call void %42(ptr noundef nonnull align 8 dereferenceable(8) %2, i32 noundef %38, i32 noundef %39)
  br label %.loopexit

43:                                               ; preds = %33
  %44 = getelementptr inbounds nuw i8, ptr %.tr32, i64 16
  tail call void @_ZNK14btQuantizedBvh42walkRecursiveQuantizedTreeAgainstQueryAabbEPK18btQuantizedBvhNodeP21btNodeOverlapCallbackPtS5_(ptr noundef nonnull align 8 dereferenceable(244) %0, ptr noundef nonnull %44, ptr noundef %2, ptr noundef nonnull %3, ptr noundef nonnull %4)
  %45 = getelementptr inbounds nuw i8, ptr %.tr32, i64 28
  %46 = load i32, ptr %45, align 4, !tbaa !56
  %47 = getelementptr inbounds nuw i8, ptr %.tr32, i64 32
  %48 = sub nsw i32 0, %46
  %49 = zext nneg i32 %48 to i64
  %50 = getelementptr inbounds nuw %struct.btQuantizedBvhNode, ptr %44, i64 %49
  %51 = icmp slt i32 %46, 0
  %52 = select i1 %51, ptr %50, ptr %47
  br label %tailrecurse

.loopexit:                                        ; preds = %tailrecurse, %37
  ret void
}